; Function Attrs: mustprogress nofree norecurse nosync nounwind willreturn memory(argmem: read) uwtable
define internal noundef zeroext i1 @_ZNK7rocksdb12_GLOBAL__N_120FixedPrefixTransform8InDomainERKNS_5SliceE(ptr nocapture noundef nonnull readonly align 8 dereferenceable(72) %this, ptr nocapture noundef nonnull readonly align 8 dereferenceable(16) %src) unnamed_addr #7 align 2 {
entry:
  %size_.i = getelementptr inbounds i8, ptr %src, i64 8
  %0 = load i64, ptr %size_.i, align 8
  %prefix_len_ = getelementptr inbounds i8, ptr %this, i64 32
  %1 = load i64, ptr %prefix_len_, align 8
  %cmp = icmp uge i64 %0, %1
  ret i1 %cmp
}